; Function Attrs: mustprogress nounwind uwtable
define hidden void @_Z19wait_init_completedv() local_unnamed_addr #1 {
  %1 = load ptr, ptr @InitCompleted_lock, align 8
  %.not.i.i = icmp eq ptr %1, null
  br i1 %.not.i.i, label %_ZN13MonitorLockerC2EP7MonitorN5Mutex18SafepointCheckFlagE.exit, label %2

2:                                                ; preds = %0
  tail call void @_ZN5Mutex28lock_without_safepoint_checkEv(ptr noundef nonnull align 8 dereferenceable(104) %1) #4
  br label %_ZN13MonitorLockerC2EP7MonitorN5Mutex18SafepointCheckFlagE.exit

_ZN13MonitorLockerC2EP7MonitorN5Mutex18SafepointCheckFlagE.exit: ; preds = %0, %2
  %3 = load volatile i8, ptr @_ZL15_init_completed, align 1
  %4 = trunc i8 %3 to i1
  br i1 %4, label %._crit_edge, label %_ZN13MonitorLocker4waitEl.exit

_ZN13MonitorLocker4waitEl.exit:                   ; preds = %_ZN13MonitorLockerC2EP7MonitorN5Mutex18SafepointCheckFlagE.exit, %_ZN13MonitorLocker4waitEl.exit
  %5 = tail call noundef zeroext i1 @_ZN7Monitor28wait_without_safepoint_checkEm(ptr noundef nonnull align 8 dereferenceable(104) %1, i64 noundef 0) #4
  %6 = load volatile i8, ptr @_ZL15_init_completed, align 1
  %7 = trunc i8 %6 to i1
  br i1 %7, label %._crit_edge, label %_ZN13MonitorLocker4waitEl.exit, !llvm.loop !7

._crit_edge:                                      ; preds = %_ZN13MonitorLocker4waitEl.exit, %_ZN13MonitorLockerC2EP7MonitorN5Mutex18SafepointCheckFlagE.exit
  br i1 %.not.i.i, label %_ZN13MonitorLockerD2Ev.exit, label %8

8:                                                ; preds = %._crit_edge
  tail call void @_ZN5Mutex6unlockEv(ptr noundef nonnull align 8 dereferenceable(104) %1) #4
  br label %_ZN13MonitorLockerD2Ev.exit

_ZN13MonitorLockerD2Ev.exit:                      ; preds = %._crit_edge, %8
  ret void
}